; Function Attrs: mustprogress nofree nounwind willreturn memory(argmem: read) uwtable
define noundef zeroext i1 @_ZNK5boost4urls12ipv6_address11is_loopbackEv(ptr nocapture noundef nonnull readonly align 1 dereferenceable(16) %0) local_unnamed_addr #7 align 2 personality ptr @__gxx_personality_v0 {
  %2 = alloca %"class.boost::urls::ipv6_address", align 8
  call void @llvm.lifetime.start.p0(i64 16, ptr nonnull %2) #23
  store i64 0, ptr %2, align 8
  %3 = getelementptr inbounds nuw i8, ptr %2, i64 8
  store i64 72057594037927936, ptr %3, align 8
  %bcmp.i.i.i.i.i.i = call i32 @bcmp(ptr noundef nonnull align 1 dereferenceable(16) %0, ptr noundef nonnull align 1 dereferenceable(16) %2, i64 16)
  %.not9.i.i.i.i.i.i = icmp eq i32 %bcmp.i.i.i.i.i.i, 0
  call void @llvm.lifetime.end.p0(i64 16, ptr nonnull %2) #23
  ret i1 %.not9.i.i.i.i.i.i
}